#include <math.h>
#include <stdio.h>
#include <stdlib.h>
#include <string.h>
#include <iostream>
using namespace std;

int t;
void tot(int,int);
int main()
{

	int n,a[100],i;
	cin>>n;
	for(i=1;i<=n;i++)
	cin>>a[i];
	for(i=1;i<=n;i++) {
		t = 0;
		tot(a[i],2);
		cout<<t<<endl;
	}
	return 0;
}

void tot(int x, int min)
{	int k;
	if(x==1) {
		++t;
		return;
	}
	for(k=min;k<=x;k++)
		if(x%k==0)
		{
			tot(x/k, k);
		}
}